(lp0
(dp1
S'body'
p2
S'to jest tresc'
p3
sS'seq'
p4
I0
sS'callid'
p5
S't0l5p1'
p6
sS'proxy_one_ip'
p7
S'127.38.78.131'
p8
sS'proxy_two_ip'
p9
S'127.109.70.204'
p10
sS'dest_port'
p11
I31291
sS'sender'
p12
S'kamszy'
p13
sS'proxy_two_port'
p14
I10624
sS'user'
p15
S'kamszy'
p16
sS'source_ip'
p17
S'127.177.219.244'
p18
sS'receiver'
p19
S'revszy'
p20
sS'source_port'
p21
I65522
sS'dest_ip'
p22
S'127.0.0.1'
p23
sS'proxy_one_port'
p24
I19657
sa(dp25
g17
S'127.177.219.244'
p26
sS'template'
p27
S'INVITE sip:%(receiver)s@%(dest_ip)s:%(dest_port)s SIP/2.0\nVia: SIP/2.0/TCP %(source_ip)s:%(source_port)s;branch=z9hG4bK74b43\nMax-Forwards: 70\nRoute: <sip:%(proxy_one_ip)s:%(proxy_one_port)s;lr>\nFrom: %(sender)s <sip:%(sender)s@%(source_ip)s:%(source_port)s>;tag=9fxced76sl\nTo: %(receiver)s <sip:%(receiver)s@%(dest_ip)s:%(dest_port)s>\nCall-ID: 3848276298220188511@atlanta.example.com\nCSeq: 1 INVITE\nContact: <sip:%(sender)s@%(source_ip)s:%(source_port)s;transport=tcp>\nContent-Type: application/sdp\nContent-Length: 124\n\nv=0\no=%(sender)s 2890844526 2890844526 IN IP4 %(source_ip)s:%(source_port)s\ns=-\nc=IN IP4 %(source_ip)s\nt=0 0\nm=audio 49172 RTP/AVP 0\na=rtpmap:0 PCMU/8000\n'
p28
sg21
S'65522'
p29
sS'path'
p30
S'/home/kszymans/thesis_main/templates/F1_INVITE_call_est.txt'
p31
sg22
S'127.38.78.131'
p32
sg11
S'19657'
p33
sa(dp34
g17
S'127.38.78.131'
p35
sg27
S'SIP/2.0 407 Proxy Authorization Required\nVia: SIP/2.0/TCP %(source_ip)s:%(source_port)s;branch=z9hG4bK74b43;received=192.0.2.101\nFrom: %(sender)s <sip:%(sender)s@%(source_ip)s:%(source_port)s>;tag=9fxced76sl\nTo: %(receiver)s <sip:%(receiver)s@%(dest_ip)s:%(dest_port)s>;tag=3flal12sf\nCall-ID: 3848276298220188511@atlanta.example.com\nCSeq: 1 INVITE\nProxy-Authenticate: Digest realm="atlanta.example.com", qop="auth",nonce="f84f1cec41e6cbe5aea9c8e88d359",opaque="", stale=FALSE, algorithm=MD5\nContent-Length: 0\n\n'
p36
sg21
S'19657'
p37
sg30
S'/home/kszymans/thesis_main/templates/F2_407_call_est.txt'
p38
sg22
S'127.177.219.244'
p39
sg11
S'65522'
p40
sa(dp41
g17
S'127.177.219.244'
p42
sg27
S'ACK sip:%(receiver)s@%(dest_ip)s:%(dest_port)s SIP/2.0\nVia: SIP/2.0/TCP %(source_ip)s:%(source_port)s;branch=z9hG4bK74b43\nMax-Forwards: 70\nFrom: %(sender)s <sip:%(sender)s@%(source_ip)s%(source_port)s>;tag=9fxced76sl\nTo: %(receiver)s <sip:%(receiver)s@%(dest_ip)s:%(dest_port)s>;tag=3flal12sf\nCall-ID: 3848276298220188511@atlanta.example.com\nCSeq: 1 ACK\nContent-Length: 0'
p43
sg21
S'65522'
p44
sg30
S'/home/kszymans/thesis_main/templates/F3_ACK_call_est.txt'
p45
sg22
S'127.38.78.131'
p46
sg11
S'19657'
p47
sa(dp48
g17
S'127.177.219.244'
p49
sg27
S'INVITE sip:%(receiver)s@%(dest_ip)s:%(dest_port)s SIP/2.0\nVia: SIP/2.0/TCP %(source_ip)s:%(source_port)s;branch=z9hG4bK74bf9\nMax-Forwards: 70\nRoute: <sip:%(proxy_one_ip)s:%(proxy_one_port)s;lr>\nFrom: %(sender)s <sip:%(sender)s@%(source_ip)s:%(source_port)s>;tag=9fxced76sl\nTo: %(receiver)s <sip:%(receiver)s@%(dest_ip)s:%(dest_port)s>\nCall-ID: 3848276298220188511@atlanta.example.com\nCSeq: 2 INVITE\nContact: <sip:%(sender)s@%(source_ip)s:%(source_port)s;transport=tcp>\nProxy-Authorization: Digest username="%(sender)s",realm="atlanta.example.com",nonce="wf84f1ceczx41ae6cbe5aea9c8e88d359", opaque="",uri="sip:%(receiver)s@%(dest_ip)s:%(dest_port)s",response="42ce3cef44b22f50c6a6071bc8"\nContent-Type: application/sdp\nContent-Length: 151\n\nv=0\no=alice 2890844526 2890844526 IN IP4 %(source_ip)s\ns=-\nc=IN IP4 %(source_ip)s\nt=0 0\nm=audio 49172 RTP/AVP 0\na=rtpmap:0 PCMU/8000'
p50
sg21
S'65522'
p51
sg30
S'/home/kszymans/thesis_main/templates/F4_INVITE_call_est.txt'
p52
sg22
S'127.38.78.131'
p53
sg11
S'19657'
p54
sa(dp55
g17
S'127.38.78.131'
p56
sg27
S'INVITE sip:%(receiver)s@%(dest_ip)s:%(dest_port)s SIP/2.0\nVia: SIP/2.0/TCP %(proxy_one_ip)s:%(proxy_one_port)s;branch=z9hG4bK2d4790.1\nVia: SIP/2.0/TCP %(source_ip)s:%(source_port)s;branch=z9hG4bK74bf9;received=%(source_ip)s\nMax-Forwards: 70\nRecord-Route: <sip:%(proxy_one_ip)s:%(proxy_one_port)s;lr>\nFrom: %(sender)s <sip:%(sender)s@%(source_ip)s:%(source_port)s>;tag=9fxced76sl\nTo: %(receiver)s <sip:%(receiver)s@%(dest_ip)s:%(dest_port)s>\nCall-ID: 3848276298220188511@atlanta.example.com\nCSeq: 2 INVITE\nContact: <sip:%(sender)s@%(source_ip)s:%(source_port)s;transport=tcp>\nContent-Type: application/sdp\nContent-Length: 151\n\nv=0\no=alice 2890844526 2890844526 IN IP4 %(source_ip)s\ns=-\nc=IN IP4 %(source_ip)s\nt=0 0\nm=audio 49172 RTP/AVP 0\na=rtpmap:0 PCMU/8000'
p57
sg21
S'19657'
p58
sg30
S'/home/kszymans/thesis_main/templates/F5_INVITE_call_est.txt'
p59
sg22
S'127.109.70.204'
p60
sg11
S'10624'
p61
sa(dp62
g17
S'127.38.78.131'
p63
sg27
S'SIP/2.0 100 Trying\nVia: SIP/2.0/TCP %(source_ip)s:%(source_port)s;branch=z9hG4bK74bf9;received=%(source_ip)s\nFrom: %(sender)s <sip:%(sender)s@%(source_ip)s:%(source_port)s>;tag=9fxced76sl\nTo: %(receiver)s <sip:%(receiver)s@%(dest_ip)s:%(dest_port)s>\nCall-ID: 3848276298220188511@atlanta.example.com\nCSeq: 2 INVITE\nContent-Length: 0'
p64
sg21
S'19657'
p65
sg30
S'/home/kszymans/thesis_main/templates/F6_100_call_est.txt'
p66
sg22
S'127.177.219.244'
p67
sg11
S'65522'
p68
sa(dp69
g17
S'127.109.70.204'
p70
sg27
S'INVITE sip:%(receiver)s@%(dest_ip)s:%(dest_port)s SIP/2.0\nVia: SIP/2.0/TCP %(proxy_two_ip)s:%(proxy_two_port)s;branch=z9hG4bK721e4.1\nVia: SIP/2.0/TCP %(proxy_one_ip)s:%(proxy_one_port)s;branch=z9hG4bK2d4790.1;received=%(proxy_one_ip)s\nVia: SIP/2.0/TCP %(source_ip)s:%(source_port)s;branch=z9hG4bK74bf9;received=%(source_ip)s\nMax-Forwards: 68\nRecord-Route: <sip:%(proxy_two_ip)s:%(proxy_two_port)s;lr>,<sip:%(proxy_one_ip)s:%(proxy_one_port)s;lr>\nFrom: %(sender)s <sip:%(sender)s@%(source_ip)s:%(source_port)s>;tag=9fxced76sl\nTo: %(receiver)s <sip:%(receiver)s@%(dest_ip)s:%(dest_port)s>\nCall-ID: 3848276298220188511@atlanta.example.com\nCSeq: 2 INVITE\nContact: <sip:%(sender)s@%(source_ip)s:%(source_port)s;transport=tcp>\nContent-Type: application/sdp\nContent-Length: 151\n\nv=0\no=%(sender)s 2890844526 2890844526 IN IP4 %(source_ip)s:%(source_port)s\ns=-\nc=IN IP4 %(source_ip)s\nt=0 0\nm=audio 49172 RTP/AVP 0\na=rtpmap:0 PCMU/8000'
p71
sg21
S'10624'
p72
sg30
S'/home/kszymans/thesis_main/templates/F7_INVITE_call_est.txt'
p73
sg22
S'127.0.0.1'
p74
sg11
S'31291'
p75
sa(dp76
g17
S'127.0.0.1'
p77
sg27
S'SIP/2.0 180 Ringing\nVia: SIP/2.0/TCP %(proxy_two_ip)s:%(proxy_two_port)s;branch=z9hG4bK721e4.1;received=%(proxy_two_ip)s\nVia: SIP/2.0/TCP %(proxy_one_ip)s:%(proxy_one_port)s;branch=z9hG4bK2d4790.1;received=%(proxy_one_ip)s\nVia: SIP/2.0/TCP %(source_ip)s:%(source_port)s;branch=z9hG4bK74bf9;received=%(source_ip)s\nRecord-Route: <sip:%(proxy_two_ip)s:%(proxy_two_port)s;lr>,<sip:%(proxy_one_ip)s:%(proxy_one_port)s;lr>\nFrom: %(sender)s <sip:%(sender)s@%(source_ip)s:%(source_port)s>;tag=9fxced76sl\nTo: %(receiver)s <sip:%(receiver)s@%(dest_ip)s:%(dest_port)s>xample.com>;tag=314159\nCall-ID: 3848276298220188511@atlanta.example.com\nContact: <sip:%(receiver)s@%(dest_ip)s:%(dest_port)s>;transport=tcp>\nCSeq: 2 INVITE\nContent-Length: 0'
p78
sg21
S'31291'
p79
sg30
S'/home/kszymans/thesis_main/templates/F9_180_call_est.txt'
p80
sg22
S'127.109.70.204'
p81
sg11
S'10624'
p82
sa(dp83
g17
S'127.109.70.204'
p84
sg27
S'SIP/2.0 180 Ringing\nVia: SIP/2.0/TCP %(proxy_one_ip)s:%(proxy_one_port)s;branch=z9hG4bK2d4790.1;received=%(proxy_one_ip)s\nVia: SIP/2.0/TCP %(source_ip)s:%(source_port)s;branch=z9hG4bK74bf9;received=%(source_ip)s\nRecord-Route: <sip:%(proxy_two_ip)s:%(proxy_two_port)s;lr>,<sip:%(proxy_one_ip)s:%(proxy_one_port)s;lr>\nFrom: %(sender)s <sip:%(sender)s@%(source_ip)s:%(source_port)s>;tag=9fxced76sl\nTo: %(receiver)s <sip:%(receiver)s@%(dest_ip)s:%(dest_port)s>\nCall-ID: 3848276298220188511@atlanta.example.com\nContact: <sip:%(receiver)s@%(dest_ip)s:%(dest_port)s>;transport=tcp>\nCSeq: 2 INVITE\nContent-Length: 0'
p85
sg21
S'10624'
p86
sg30
S'/home/kszymans/thesis_main/templates/F10_180_call_est.txt'
p87
sg22
S'127.38.78.131'
p88
sg11
S'19657'
p89
sa(dp90
g17
S'127.38.78.131'
p91
sg27
S'SIP/2.0 180 Ringing\nVia: SIP/2.0/TCP %(source_ip)s:%(source_port)s;branch=z9hG4bK74bf9;received=%(source_ip)s\nRecord-Route: <sip:%(proxy_two_ip)s:%(proxy_two_port)s;lr>,<sip:%(proxy_one_ip)s:%(proxy_one_port)s;lr>\nFrom: %(sender)s <sip:%(sender)s@%(source_ip)s:%(source_port)s>;tag=9fxced76sl\nTo: %(receiver)s <sip:%(receiver)s@%(dest_ip)s:%(dest_port)s>;tag=314159\nCall-ID: 3848276298220188511@atlanta.example.com\nContact: <sip:%(receiver)s@%(dest_ip)s:%(dest_port)s;transport=tcp>\nCSeq: 2 INVITE\nContent-Length: 0'
p92
sg21
S'19657'
p93
sg30
S'/home/kszymans/thesis_main/templates/F11_180_call_est.txt'
p94
sg22
S'127.177.219.244'
p95
sg11
S'65522'
p96
sa(dp97
g17
S'127.0.0.1'
p98
sg27
S'SIP/2.0 200 OK\nVia: SIP/2.0/TCP %(proxy_two_ip)s:%(proxy_two_port)s;branch=z9hG4bK721e4.1;received=%(proxy_two_ip)s\nVia: SIP/2.0/TCP %(proxy_one_ip)s:%(proxy_one_port)s;branch=z9hG4bK2d4790.1;received=%(proxy_one_ip)s\nVia: SIP/2.0/TCP %(source_ip)s:%(source_port)s;branch=z9hG4bK74bf9;received=%(source_ip)s\nRecord-Route: <sip:ss2.biloxi.example.com;lr>,<sip:ss1.atlanta.example.com;lr>\nFrom: %(sender)s <sip:%(sender)s@%(source_ip)s:%(source_port)s>;tag=9fxced76sl\nTo: %(receiver)s <sip:%(receiver)s@%(dest_ip)s:%(dest_port)s>;tag=314159\nCall-ID: 3848276298220188511@atlanta.example.com\nCSeq: 2 INVITE\nContact: <sip:%(receiver)s@%(dest_ip)s:%(dest_port)s;transport=tcp>\nContent-Type: application/sdp\nContent-Length: 147\n\nv=0\no=bob 2890844527 2890844527 IN IP4 %(dest_ip)s:%(dest_port)s\ns=-\nc=IN IP4 %(dest_ip)s\nt=0 0\nm=audio 3456 RTP/AVP 0\na=rtpmap:0 PCMU/8000'
p99
sg21
S'31291'
p100
sg30
S'/home/kszymans/thesis_main/templates/F12_200_call_est.txt'
p101
sg22
S'127.109.70.204'
p102
sg11
S'10624'
p103
sa(dp104
g17
S'127.109.70.204'
p105
sg27
S'SIP/2.0 200 OK\nVia: SIP/2.0/TCP %(proxy_one_ip)s:%(proxy_one_port)s;branch=z9hG4bK2d4790.1;received=%(proxy_one_ip)s\nVia: SIP/2.0/TCP %(source_ip)s:%(source_port)s;branch=z9hG4bK74bf9;received=%(source_ip)s\nRecord-Route: <sip:ss2.biloxi.example.com;lr>,<sip:ss1.atlanta.example.com;lr>\nFrom: %(sender)s <sip:%(sender)s@%(source_ip)s:%(source_port)s>;tag=9fxced76sl\nTo: %(receiver)s <sip:%(receiver)s@%(dest_ip)s:%(dest_port)s>;tag=314159\nCall-ID: 3848276298220188511@atlanta.example.com\nCSeq: 2 INVITE\nContact: <sip:%(receiver)s@%(dest_ip)s:%(dest_port)s;transport=tcp>\nContent-Type: application/sdp\nContent-Length: 147\n\nv=0\no=bob 2890844527 2890844527 IN IP4 %(dest_ip)s:%(dest_port)s\ns=-\nc=IN IP4 %(dest_ip)s\nt=0 0\nm=audio 3456 RTP/AVP 0\na=rtpmap:0 PCMU/8000'
p106
sg21
S'10624'
p107
sg30
S'/home/kszymans/thesis_main/templates/F13_200_call_est.txt'
p108
sg22
S'127.38.78.131'
p109
sg11
S'19657'
p110
sa(dp111
g17
S'127.38.78.131'
p112
sg27
S'SIP/2.0 200 OK\nVia: SIP/2.0/TCP %(source_ip)s:%(source_port)s;branch=z9hG4bK74bf9;received=%(source_ip)s\nRecord-Route: <sip:ss2.biloxi.example.com;lr>,<sip:ss1.atlanta.example.com;lr>\nFrom: %(sender)s <sip:%(sender)s@%(source_ip)s:%(source_port)s>;tag=9fxced76sl\nTo: %(receiver)s <sip:%(receiver)s@%(dest_ip)s:%(dest_port)s>;tag=314159\nCall-ID: 3848276298220188511@atlanta.example.com\nCSeq: 2 INVITE\nContact: <sip:%(receiver)s@%(dest_ip)s:%(dest_port)s;transport=tcp>\nContent-Type: application/sdp\nContent-Length: 147\n\nv=0\no=bob 2890844527 2890844527 IN IP4 %(dest_ip)s:%(dest_port)s\ns=-\nc=IN IP4 %(dest_ip)s\nt=0 0\nm=audio 3456 RTP/AVP 0\na=rtpmap:0 PCMU/8000'
p113
sg21
S'19657'
p114
sg30
S'/home/kszymans/thesis_main/templates/F14_200_call_est.txt'
p115
sg22
S'127.177.219.244'
p116
sg11
S'65522'
p117
sa(dp118
g17
S'127.177.219.244'
p119
sg27
S'ACK sip:%(receiver)s@%(dest_ip)s:%(dest_port)s SIP/2.0\nVia: SIP/2.0/TCP %(source_ip)s:%(source_port)s;branch=z9hG4bK74b76\nMax-Forwards: 70\nRoute: <sip:%(proxy_one_ip)s:%(proxy_one_port)s;lr>,<sip:%(proxy_two_ip)s:%(proxy_two_port)s;lr>\nFrom: %(sender)s <sip:%(sender)s@%(source_ip)s:%(source_port)s>;tag=9fxced76sl\nTo: %(receiver)s <sip:%(receiver)s@%(dest_ip)s:%(dest_port)s;tag=314159\nCall-ID: 3848276298220188511@atlanta.example.com\nCSeq: 2 ACK\nContent-Length: 0'
p120
sg21
S'65522'
p121
sg30
S'/home/kszymans/thesis_main/templates/F15_ACK_call_est.txt'
p122
sg22
S'127.38.78.131'
p123
sg11
S'19657'
p124
sa.